target datalayout = "e-m:e-p270:32:32-p271:32:32-p272:64:64-i64:64-i128:128-f80:128-n8:16:32:64-S128"
target triple = "x86_64-pc-linux-gnu"

%struct._zval_struct = type { %union._zend_value, %union.anon, %union.anon.2 }
%union._zend_value = type { i64 }
%union.anon = type { i32 }
%union.anon.2 = type { i32 }
%struct._zend_op_array = type { i8, [3 x i8], i32, ptr, ptr, ptr, i32, i32, ptr, ptr, ptr, ptr, i32, i32, i32, i32, ptr, ptr, ptr, ptr, ptr, i32, i32, ptr, ptr, ptr, i32, i32, i32, i32, ptr, ptr, [6 x ptr] }
%struct._zend_op = type { ptr, %union._znode_op, %union._znode_op, %union._znode_op, i32, i32, i8, i8, i8, i8 }
%union._znode_op = type { i32 }
%struct._zend_jit_globals = type { i8, i8, i8, i8, i32, ptr, i64, i64, i64, double, i64, i64, i64, i64, i64, i64, i64, i64, i64, i64, i64, i64, i64, i64, ptr, i8, ptr, ptr, [64 x ptr], [64 x i8], [64 x i8], i32, ptr }
%struct._zend_execute_data = type { ptr, ptr, ptr, ptr, %struct._zval_struct, ptr, ptr, ptr, ptr }
%struct._zend_func_info = type { i32, i32, %struct._zend_ssa, ptr, ptr, ptr, %struct._zend_ssa_var_info }
%struct._zend_ssa = type { %struct._zend_cfg, i32, i32, ptr, ptr, ptr, ptr }
%struct._zend_cfg = type { i32, i32, ptr, ptr, ptr, i32 }
%struct._zend_ssa_var_info = type { i32, i8, %struct._zend_ssa_range, ptr }
%struct._zend_ssa_range = type { i64, i64, i8, i8 }
%struct._zend_jit_op_array_trace_extension = type { %struct._zend_func_info, ptr, i64, [1 x %union._zend_op_trace_info] }
%union._zend_op_trace_info = type { %struct._zend_op }
%struct.anon.8 = type { ptr, ptr, ptr, i8 }

@zend_func_info_rid = external global i32, align 4
@jit_globals = external global %struct._zend_jit_globals, align 8

; Function Attrs: nounwind uwtable
define hidden i32 @zend_jit_func_trace_helper(ptr noundef %0) #0 {
  %2 = alloca i32, align 4
  %3 = alloca i32, align 4
  %4 = alloca ptr, align 8
  %5 = alloca ptr, align 8
  %6 = alloca i64, align 8
  %7 = alloca ptr, align 8
  %8 = alloca ptr, align 8
  %9 = alloca ptr, align 8
  store ptr %0, ptr %9, align 8
  br label %10

10:                                               ; preds = %1
  %11 = load i64, ptr getelementptr inbounds (%struct._zend_jit_globals, ptr @jit_globals, i32 0, i32 14), align 8
  %12 = add nsw i64 32531, %11
  %13 = sub nsw i64 %12, 1
  %14 = load i64, ptr getelementptr inbounds (%struct._zend_jit_globals, ptr @jit_globals, i32 0, i32 14), align 8
  %15 = sdiv i64 %13, %14
  %16 = trunc i64 %15 to i32
  %17 = load ptr, ptr %9, align 8
  store i32 %16, ptr %3, align 4
  store ptr %17, ptr %4, align 8
  %18 = load ptr, ptr %4, align 8
  %19 = getelementptr inbounds %struct._zend_execute_data, ptr %18, i32 0, i32 3
  %20 = load ptr, ptr %19, align 8
  %21 = getelementptr inbounds %struct._zend_op_array, ptr %20, i32 0, i32 32
  %22 = load i32, ptr @zend_func_info_rid, align 4
  %23 = sext i32 %22 to i64
  %24 = getelementptr inbounds [6 x ptr], ptr %21, i64 0, i64 %23
  %25 = load ptr, ptr %24, align 8
  store ptr %25, ptr %5, align 8
  %26 = load ptr, ptr %5, align 8
  %27 = getelementptr inbounds %struct._zend_jit_op_array_trace_extension, ptr %26, i32 0, i32 2
  %28 = load i64, ptr %27, align 8
  store i64 %28, ptr %6, align 8
  %29 = load ptr, ptr %4, align 8
  %30 = load ptr, ptr %29, align 8
  store ptr %30, ptr %7, align 8
  %31 = load i32, ptr %3, align 4
  %32 = load ptr, ptr %7, align 8
  %33 = load i64, ptr %6, align 8
  %34 = getelementptr inbounds i8, ptr %32, i64 %33
  %35 = getelementptr inbounds %struct.anon.8, ptr %34, i32 0, i32 2
  %36 = load ptr, ptr %35, align 8
  %37 = load i16, ptr %36, align 2
  %38 = sext i16 %37 to i32
  %39 = sub i32 %38, %31
  %40 = trunc i32 %39 to i16
  store i16 %40, ptr %36, align 2
  %41 = load ptr, ptr %7, align 8
  %42 = load i64, ptr %6, align 8
  %43 = getelementptr inbounds i8, ptr %41, i64 %42
  %44 = getelementptr inbounds %struct.anon.8, ptr %43, i32 0, i32 2
  %45 = load ptr, ptr %44, align 8
  %46 = load i16, ptr %45, align 2
  %47 = sext i16 %46 to i32
  %48 = icmp sle i32 %47, 0
  br i1 %48, label %49, label %61

49:                                               ; preds = %10
  %50 = load ptr, ptr %7, align 8
  %51 = load i64, ptr %6, align 8
  %52 = getelementptr inbounds i8, ptr %50, i64 %51
  %53 = getelementptr inbounds %struct.anon.8, ptr %52, i32 0, i32 2
  %54 = load ptr, ptr %53, align 8
  store i16 32531, ptr %54, align 2
  %55 = load ptr, ptr %4, align 8
  %56 = load ptr, ptr %7, align 8
  %57 = call i32 @zend_jit_trace_hot_root(ptr noundef %55, ptr noundef %56) #4
  %58 = icmp slt i32 %57, 0
  br i1 %58, label %59, label %60

59:                                               ; preds = %49
  store i32 -1, ptr %2, align 4
  br label %69

60:                                               ; preds = %49
  store i32 1, ptr %2, align 4
  br label %69

61:                                               ; preds = %10
  %62 = load ptr, ptr %7, align 8
  %63 = load i64, ptr %6, align 8
  %64 = getelementptr inbounds i8, ptr %62, i64 %63
  %65 = load ptr, ptr %64, align 8
  store ptr %65, ptr %8, align 8
  %66 = load ptr, ptr %8, align 8
  %67 = load ptr, ptr %4, align 8
  %68 = call i32 %66(ptr noundef %67) #4
  store i32 %68, ptr %2, align 4
  br label %69

69:                                               ; preds = %61, %60, %59
  %70 = load i32, ptr %2, align 4
  br label %71

71:                                               ; preds = %69
  ret i32 %70
}