; Function Attrs: nounwind uwtable
define hidden i32 @zend_jit_func_trace_helper(ptr noundef %0) local_unnamed_addr #0 {
  %2 = load i64, ptr getelementptr inbounds (%struct._zend_jit_globals, ptr @jit_globals, i64 0, i32 14), align 8
  %3 = add nsw i64 %2, 32530
  %4 = sdiv i64 %3, %2
  %5 = trunc i64 %4 to i16
  %6 = getelementptr inbounds i8, ptr %0, i64 24
  %7 = load ptr, ptr %6, align 8
  %8 = getelementptr inbounds i8, ptr %7, i64 192
  %9 = load i32, ptr @zend_func_info_rid, align 4
  %10 = sext i32 %9 to i64
  %11 = getelementptr inbounds [6 x ptr], ptr %8, i64 0, i64 %10
  %12 = load ptr, ptr %11, align 8
  %13 = getelementptr inbounds i8, ptr %12, i64 160
  %14 = load i64, ptr %13, align 8
  %15 = load ptr, ptr %0, align 8
  %16 = getelementptr inbounds i8, ptr %15, i64 %14
  %17 = getelementptr inbounds i8, ptr %16, i64 16
  %18 = load ptr, ptr %17, align 8
  %19 = load i16, ptr %18, align 2
  %20 = sub i16 %19, %5
  store i16 %20, ptr %18, align 2
  %21 = load ptr, ptr %17, align 8
  %22 = load i16, ptr %21, align 2
  %23 = icmp slt i16 %22, 1
  br i1 %23, label %24, label %26

24:                                               ; preds = %1
  store i16 32531, ptr %21, align 2
  %25 = tail call i32 @zend_jit_trace_hot_root(ptr noundef nonnull %0, ptr noundef nonnull %15) #6
  %.inv = icmp sgt i32 %25, -1
  %. = select i1 %.inv, i32 1, i32 -1
  br label %29

26:                                               ; preds = %1
  %27 = load ptr, ptr %16, align 8
  %28 = tail call i32 %27(ptr noundef nonnull %0) #6
  br label %29

29:                                               ; preds = %24, %26
  %.0 = phi i32 [ %28, %26 ], [ %., %24 ]
  ret i32 %.0
}